target datalayout = "e-m:e-p270:32:32-p271:32:32-p272:64:64-i64:64-i128:128-f80:128-n8:16:32:64-S128"
target triple = "x86_64-pc-linux-gnu"

%"struct.nbnxn_atomdata_t::Params" = type { i32, %"class.std::vector", i32, %"class.std::vector", %"class.std::vector.0", %"class.std::vector.3", %"class.std::vector", %"class.std::vector", i32, %"class.std::unique_ptr" }
%"class.std::vector.0" = type { %"struct.std::_Vector_base.1" }
%"struct.std::_Vector_base.1" = type { %"struct.std::_Vector_base<float, gmx::Allocator<float, gmx::AlignedAllocationPolicy>>::_Vector_impl" }
%"struct.std::_Vector_base<float, gmx::Allocator<float, gmx::AlignedAllocationPolicy>>::_Vector_impl" = type { %"struct.std::_Vector_base<float, gmx::Allocator<float, gmx::AlignedAllocationPolicy>>::_Vector_impl_data" }
%"struct.std::_Vector_base<float, gmx::Allocator<float, gmx::AlignedAllocationPolicy>>::_Vector_impl_data" = type { ptr, ptr, ptr }
%"class.std::vector.3" = type { %"struct.std::_Vector_base.4" }
%"struct.std::_Vector_base.4" = type { %"struct.std::_Vector_base<int, gmx::Allocator<int, gmx::HostAllocationPolicy>>::_Vector_impl" }
%"struct.std::_Vector_base<int, gmx::Allocator<int, gmx::HostAllocationPolicy>>::_Vector_impl" = type { %"class.gmx::Allocator.5", %"struct.std::_Vector_base<int, gmx::Allocator<int, gmx::HostAllocationPolicy>>::_Vector_impl_data" }
%"class.gmx::Allocator.5" = type { %"class.gmx::HostAllocationPolicy" }
%"class.gmx::HostAllocationPolicy" = type { i32 }
%"struct.std::_Vector_base<int, gmx::Allocator<int, gmx::HostAllocationPolicy>>::_Vector_impl_data" = type { ptr, ptr, ptr }
%"class.std::vector" = type { %"struct.std::_Vector_base" }
%"struct.std::_Vector_base" = type { %"struct.std::_Vector_base<float, gmx::Allocator<float, gmx::HostAllocationPolicy>>::_Vector_impl" }
%"struct.std::_Vector_base<float, gmx::Allocator<float, gmx::HostAllocationPolicy>>::_Vector_impl" = type { %"class.gmx::Allocator", %"struct.std::_Vector_base<float, gmx::Allocator<float, gmx::HostAllocationPolicy>>::_Vector_impl_data" }
%"class.gmx::Allocator" = type { %"class.gmx::HostAllocationPolicy" }
%"struct.std::_Vector_base<float, gmx::Allocator<float, gmx::HostAllocationPolicy>>::_Vector_impl_data" = type { ptr, ptr, ptr }
%"class.std::unique_ptr" = type { %"struct.std::__uniq_ptr_data" }
%"struct.std::__uniq_ptr_data" = type { %"class.std::__uniq_ptr_impl" }
%"class.std::__uniq_ptr_impl" = type { %"class.std::tuple" }
%"class.std::tuple" = type { %"struct.std::_Tuple_impl" }
%"struct.std::_Tuple_impl" = type { %"struct.std::_Head_base.7" }
%"struct.std::_Head_base.7" = type { ptr }
%struct.nbnxn_atomdata_output_t = type { %"class.std::vector", %"class.std::vector", %"class.std::vector", %"class.std::vector", %"class.std::unique_ptr.24", %"class.std::unique_ptr.32" }
%"class.std::unique_ptr.24" = type { %"struct.std::__uniq_ptr_data.25" }
%"struct.std::__uniq_ptr_data.25" = type { %"class.std::__uniq_ptr_impl.26" }
%"class.std::__uniq_ptr_impl.26" = type { %"class.std::tuple.27" }
%"class.std::tuple.27" = type { %"struct.std::_Tuple_impl.28" }
%"struct.std::_Tuple_impl.28" = type { %"struct.std::_Head_base.31" }
%"struct.std::_Head_base.31" = type { ptr }
%"class.std::unique_ptr.32" = type { %"struct.std::__uniq_ptr_data.33" }
%"struct.std::__uniq_ptr_data.33" = type { %"class.std::__uniq_ptr_impl.34" }
%"class.std::__uniq_ptr_impl.34" = type { %"class.std::tuple.35" }
%"class.std::tuple.35" = type { %"struct.std::_Tuple_impl.36" }
%"struct.std::_Tuple_impl.36" = type { %"struct.std::_Head_base.39" }
%"struct.std::_Head_base.39" = type { ptr }
%struct.nbnxn_atomdata_t = type { %"struct.nbnxn_atomdata_t::Params", i32, i32, i32, i32, i8, %"class.std::vector.8", i32, i32, %"class.std::vector", %"struct.nbnxn_atomdata_t::SimdMasks", %"class.std::vector.17", i8, %"class.std::vector.19" }
%"class.std::vector.8" = type { %"struct.std::_Vector_base.9" }
%"struct.std::_Vector_base.9" = type { %"struct.std::_Vector_base<gmx::BasicVector<float>, gmx::Allocator<gmx::BasicVector<float>, gmx::HostAllocationPolicy>>::_Vector_impl" }
%"struct.std::_Vector_base<gmx::BasicVector<float>, gmx::Allocator<gmx::BasicVector<float>, gmx::HostAllocationPolicy>>::_Vector_impl" = type { %"class.gmx::Allocator.10", %"struct.std::_Vector_base<gmx::BasicVector<float>, gmx::Allocator<gmx::BasicVector<float>, gmx::HostAllocationPolicy>>::_Vector_impl_data" }
%"class.gmx::Allocator.10" = type { %"class.gmx::HostAllocationPolicy" }
%"struct.std::_Vector_base<gmx::BasicVector<float>, gmx::Allocator<gmx::BasicVector<float>, gmx::HostAllocationPolicy>>::_Vector_impl_data" = type { ptr, ptr, ptr }
%"struct.nbnxn_atomdata_t::SimdMasks" = type { %"class.std::vector.0", %"class.std::vector.0", %"class.std::vector.11", %"class.std::vector.14" }
%"class.std::vector.11" = type { %"struct.std::_Vector_base.12" }
%"struct.std::_Vector_base.12" = type { %"struct.std::_Vector_base<unsigned int, gmx::Allocator<unsigned int, gmx::AlignedAllocationPolicy>>::_Vector_impl" }
%"struct.std::_Vector_base<unsigned int, gmx::Allocator<unsigned int, gmx::AlignedAllocationPolicy>>::_Vector_impl" = type { %"struct.std::_Vector_base<unsigned int, gmx::Allocator<unsigned int, gmx::AlignedAllocationPolicy>>::_Vector_impl_data" }
%"struct.std::_Vector_base<unsigned int, gmx::Allocator<unsigned int, gmx::AlignedAllocationPolicy>>::_Vector_impl_data" = type { ptr, ptr, ptr }
%"class.std::vector.14" = type { %"struct.std::_Vector_base.15" }
%"struct.std::_Vector_base.15" = type { %"struct.std::_Vector_base<unsigned long, gmx::Allocator<unsigned long, gmx::AlignedAllocationPolicy>>::_Vector_impl" }
%"struct.std::_Vector_base<unsigned long, gmx::Allocator<unsigned long, gmx::AlignedAllocationPolicy>>::_Vector_impl" = type { %"struct.std::_Vector_base<unsigned long, gmx::Allocator<unsigned long, gmx::AlignedAllocationPolicy>>::_Vector_impl_data" }
%"struct.std::_Vector_base<unsigned long, gmx::Allocator<unsigned long, gmx::AlignedAllocationPolicy>>::_Vector_impl_data" = type { ptr, ptr, ptr }
%"class.std::vector.17" = type { %"struct.std::_Vector_base.18" }
%"struct.std::_Vector_base.18" = type { %"struct.std::_Vector_base<nbnxn_atomdata_output_t, std::allocator<nbnxn_atomdata_output_t>>::_Vector_impl" }
%"struct.std::_Vector_base<nbnxn_atomdata_output_t, std::allocator<nbnxn_atomdata_output_t>>::_Vector_impl" = type { %"struct.std::_Vector_base<nbnxn_atomdata_output_t, std::allocator<nbnxn_atomdata_output_t>>::_Vector_impl_data" }
%"struct.std::_Vector_base<nbnxn_atomdata_output_t, std::allocator<nbnxn_atomdata_output_t>>::_Vector_impl_data" = type { ptr, ptr, ptr }
%"class.std::vector.19" = type { %"struct.std::_Vector_base.20" }
%"struct.std::_Vector_base.20" = type { %"struct.std::_Vector_base<std::array<unsigned long, 2>, std::allocator<std::array<unsigned long, 2>>>::_Vector_impl" }
%"struct.std::_Vector_base<std::array<unsigned long, 2>, std::allocator<std::array<unsigned long, 2>>>::_Vector_impl" = type { %"struct.std::_Vector_base<std::array<unsigned long, 2>, std::allocator<std::array<unsigned long, 2>>>::_Vector_impl_data" }
%"struct.std::_Vector_base<std::array<unsigned long, 2>, std::allocator<std::array<unsigned long, 2>>>::_Vector_impl_data" = type { ptr, ptr, ptr }

$_ZNK16nbnxn_atomdata_t6paramsEv = comdat any

$_ZNK16nbnxn_atomdata_t12outputBufferEi = comdat any

$_ZNKSt6vectorIfN3gmx9AllocatorIfNS0_20HostAllocationPolicyEEEEixEm = comdat any

$_ZNKSt6vectorI23nbnxn_atomdata_output_tSaIS0_EEixEm = comdat any

; Function Attrs: mustprogress nounwind uwtable
define void @_Z12clear_fshiftPf(ptr noundef %0) #0 {
  %2 = alloca ptr, align 8
  %3 = alloca i32, align 4
  store ptr %0, ptr %2, align 8
  store i32 0, ptr %3, align 4
  br label %4

4:                                                ; preds = %12, %1
  %5 = load i32, ptr %3, align 4
  %6 = icmp slt i32 %5, 135
  br i1 %6, label %7, label %15

7:                                                ; preds = %4
  %8 = load ptr, ptr %2, align 8
  %9 = load i32, ptr %3, align 4
  %10 = sext i32 %9 to i64
  %11 = getelementptr inbounds float, ptr %8, i64 %10
  store float 0.000000e+00, ptr %11, align 4
  br label %12

12:                                               ; preds = %7
  %13 = load i32, ptr %3, align 4
  %14 = add nsw i32 %13, 1
  store i32 %14, ptr %3, align 4
  br label %4, !llvm.loop !5

15:                                               ; preds = %4
  ret void
}

; Function Attrs: mustprogress uwtable
define void @_Z26reduce_energies_over_listsPK16nbnxn_atomdata_tiPfS2_(ptr noundef %0, i32 noundef %1, ptr noundef %2, ptr noundef %3) #1 {
  %5 = alloca ptr, align 8
  %6 = alloca i32, align 4
  %7 = alloca ptr, align 8
  %8 = alloca ptr, align 8
  %9 = alloca i32, align 4
  %10 = alloca i32, align 4
  %11 = alloca i32, align 4
  %12 = alloca i32, align 4
  %13 = alloca i32, align 4
  %14 = alloca i32, align 4
  %15 = alloca i32, align 4
  store ptr %0, ptr %5, align 8
  store i32 %1, ptr %6, align 4
  store ptr %2, ptr %7, align 8
  store ptr %3, ptr %8, align 8
  %16 = load ptr, ptr %5, align 8
  %17 = call noundef nonnull align 8 dereferenceable(216) ptr @_ZNK16nbnxn_atomdata_t6paramsEv(ptr noundef nonnull align 8 dereferenceable(464) %16)
  %18 = getelementptr inbounds %"struct.nbnxn_atomdata_t::Params", ptr %17, i32 0, i32 8
  %19 = load i32, ptr %18, align 8
  store i32 %19, ptr %9, align 4
  store i32 0, ptr %10, align 4
  br label %20

20:                                               ; preds = %134, %4
  %21 = load i32, ptr %10, align 4
  %22 = load i32, ptr %6, align 4
  %23 = icmp slt i32 %21, %22
  br i1 %23, label %24, label %137

24:                                               ; preds = %20
  store i32 0, ptr %11, align 4
  br label %25

25:                                               ; preds = %130, %24
  %26 = load i32, ptr %11, align 4
  %27 = load i32, ptr %9, align 4
  %28 = icmp slt i32 %26, %27
  br i1 %28, label %29, label %133

29:                                               ; preds = %25
  %30 = load i32, ptr %11, align 4
  %31 = load i32, ptr %9, align 4
  %32 = mul nsw i32 %30, %31
  %33 = load i32, ptr %11, align 4
  %34 = add nsw i32 %32, %33
  store i32 %34, ptr %12, align 4
  %35 = load ptr, ptr %5, align 8
  %36 = load i32, ptr %10, align 4
  %37 = call noundef nonnull align 8 dereferenceable(144) ptr @_ZNK16nbnxn_atomdata_t12outputBufferEi(ptr noundef nonnull align 8 dereferenceable(464) %35, i32 noundef %36)
  %38 = getelementptr inbounds %struct.nbnxn_atomdata_output_t, ptr %37, i32 0, i32 2
  %39 = load i32, ptr %12, align 4
  %40 = sext i32 %39 to i64
  %41 = call noundef nonnull align 4 dereferenceable(4) ptr @_ZNKSt6vectorIfN3gmx9AllocatorIfNS0_20HostAllocationPolicyEEEEixEm(ptr noundef nonnull align 8 dereferenceable(32) %38, i64 noundef %40) #2
  %42 = load float, ptr %41, align 4
  %43 = load ptr, ptr %7, align 8
  %44 = load i32, ptr %12, align 4
  %45 = sext i32 %44 to i64
  %46 = getelementptr inbounds float, ptr %43, i64 %45
  %47 = load float, ptr %46, align 4
  %48 = fadd float %47, %42
  store float %48, ptr %46, align 4
  %49 = load ptr, ptr %5, align 8
  %50 = load i32, ptr %10, align 4
  %51 = call noundef nonnull align 8 dereferenceable(144) ptr @_ZNK16nbnxn_atomdata_t12outputBufferEi(ptr noundef nonnull align 8 dereferenceable(464) %49, i32 noundef %50)
  %52 = getelementptr inbounds %struct.nbnxn_atomdata_output_t, ptr %51, i32 0, i32 3
  %53 = load i32, ptr %12, align 4
  %54 = sext i32 %53 to i64
  %55 = call noundef nonnull align 4 dereferenceable(4) ptr @_ZNKSt6vectorIfN3gmx9AllocatorIfNS0_20HostAllocationPolicyEEEEixEm(ptr noundef nonnull align 8 dereferenceable(32) %52, i64 noundef %54) #2
  %56 = load float, ptr %55, align 4
  %57 = load ptr, ptr %8, align 8
  %58 = load i32, ptr %12, align 4
  %59 = sext i32 %58 to i64
  %60 = getelementptr inbounds float, ptr %57, i64 %59
  %61 = load float, ptr %60, align 4
  %62 = fadd float %61, %56
  store float %62, ptr %60, align 4
  %63 = load i32, ptr %11, align 4
  %64 = add nsw i32 %63, 1
  store i32 %64, ptr %13, align 4
  br label %65

65:                                               ; preds = %126, %29
  %66 = load i32, ptr %13, align 4
  %67 = load i32, ptr %9, align 4
  %68 = icmp slt i32 %66, %67
  br i1 %68, label %69, label %129

69:                                               ; preds = %65
  %70 = load i32, ptr %11, align 4
  %71 = load i32, ptr %9, align 4
  %72 = mul nsw i32 %70, %71
  %73 = load i32, ptr %13, align 4
  %74 = add nsw i32 %72, %73
  store i32 %74, ptr %14, align 4
  %75 = load i32, ptr %13, align 4
  %76 = load i32, ptr %9, align 4
  %77 = mul nsw i32 %75, %76
  %78 = load i32, ptr %11, align 4
  %79 = add nsw i32 %77, %78
  store i32 %79, ptr %15, align 4
  %80 = load ptr, ptr %5, align 8
  %81 = load i32, ptr %10, align 4
  %82 = call noundef nonnull align 8 dereferenceable(144) ptr @_ZNK16nbnxn_atomdata_t12outputBufferEi(ptr noundef nonnull align 8 dereferenceable(464) %80, i32 noundef %81)
  %83 = getelementptr inbounds %struct.nbnxn_atomdata_output_t, ptr %82, i32 0, i32 2
  %84 = load i32, ptr %14, align 4
  %85 = sext i32 %84 to i64
  %86 = call noundef nonnull align 4 dereferenceable(4) ptr @_ZNKSt6vectorIfN3gmx9AllocatorIfNS0_20HostAllocationPolicyEEEEixEm(ptr noundef nonnull align 8 dereferenceable(32) %83, i64 noundef %85) #2
  %87 = load float, ptr %86, align 4
  %88 = load ptr, ptr %5, align 8
  %89 = load i32, ptr %10, align 4
  %90 = call noundef nonnull align 8 dereferenceable(144) ptr @_ZNK16nbnxn_atomdata_t12outputBufferEi(ptr noundef nonnull align 8 dereferenceable(464) %88, i32 noundef %89)
  %91 = getelementptr inbounds %struct.nbnxn_atomdata_output_t, ptr %90, i32 0, i32 2
  %92 = load i32, ptr %15, align 4
  %93 = sext i32 %92 to i64
  %94 = call noundef nonnull align 4 dereferenceable(4) ptr @_ZNKSt6vectorIfN3gmx9AllocatorIfNS0_20HostAllocationPolicyEEEEixEm(ptr noundef nonnull align 8 dereferenceable(32) %91, i64 noundef %93) #2
  %95 = load float, ptr %94, align 4
  %96 = fadd float %87, %95
  %97 = load ptr, ptr %7, align 8
  %98 = load i32, ptr %14, align 4
  %99 = sext i32 %98 to i64
  %100 = getelementptr inbounds float, ptr %97, i64 %99
  %101 = load float, ptr %100, align 4
  %102 = fadd float %101, %96
  store float %102, ptr %100, align 4
  %103 = load ptr, ptr %5, align 8
  %104 = load i32, ptr %10, align 4
  %105 = call noundef nonnull align 8 dereferenceable(144) ptr @_ZNK16nbnxn_atomdata_t12outputBufferEi(ptr noundef nonnull align 8 dereferenceable(464) %103, i32 noundef %104)
  %106 = getelementptr inbounds %struct.nbnxn_atomdata_output_t, ptr %105, i32 0, i32 3
  %107 = load i32, ptr %14, align 4
  %108 = sext i32 %107 to i64
  %109 = call noundef nonnull align 4 dereferenceable(4) ptr @_ZNKSt6vectorIfN3gmx9AllocatorIfNS0_20HostAllocationPolicyEEEEixEm(ptr noundef nonnull align 8 dereferenceable(32) %106, i64 noundef %108) #2
  %110 = load float, ptr %109, align 4
  %111 = load ptr, ptr %5, align 8
  %112 = load i32, ptr %10, align 4
  %113 = call noundef nonnull align 8 dereferenceable(144) ptr @_ZNK16nbnxn_atomdata_t12outputBufferEi(ptr noundef nonnull align 8 dereferenceable(464) %111, i32 noundef %112)
  %114 = getelementptr inbounds %struct.nbnxn_atomdata_output_t, ptr %113, i32 0, i32 3
  %115 = load i32, ptr %15, align 4
  %116 = sext i32 %115 to i64
  %117 = call noundef nonnull align 4 dereferenceable(4) ptr @_ZNKSt6vectorIfN3gmx9AllocatorIfNS0_20HostAllocationPolicyEEEEixEm(ptr noundef nonnull align 8 dereferenceable(32) %114, i64 noundef %116) #2
  %118 = load float, ptr %117, align 4
  %119 = fadd float %110, %118
  %120 = load ptr, ptr %8, align 8
  %121 = load i32, ptr %14, align 4
  %122 = sext i32 %121 to i64
  %123 = getelementptr inbounds float, ptr %120, i64 %122
  %124 = load float, ptr %123, align 4
  %125 = fadd float %124, %119
  store float %125, ptr %123, align 4
  br label %126

126:                                              ; preds = %69
  %127 = load i32, ptr %13, align 4
  %128 = add nsw i32 %127, 1
  store i32 %128, ptr %13, align 4
  br label %65, !llvm.loop !7

129:                                              ; preds = %65
  br label %130

130:                                              ; preds = %129
  %131 = load i32, ptr %11, align 4
  %132 = add nsw i32 %131, 1
  store i32 %132, ptr %11, align 4
  br label %25, !llvm.loop !8

133:                                              ; preds = %25
  br label %134

134:                                              ; preds = %133
  %135 = load i32, ptr %10, align 4
  %136 = add nsw i32 %135, 1
  store i32 %136, ptr %10, align 4
  br label %20, !llvm.loop !9

137:                                              ; preds = %20
  ret void
}

; Function Attrs: mustprogress nounwind uwtable
define linkonce_odr noundef nonnull align 8 dereferenceable(216) ptr @_ZNK16nbnxn_atomdata_t6paramsEv(ptr noundef nonnull align 8 dereferenceable(464) %0) #0 comdat align 2 {
  %2 = alloca ptr, align 8
  store ptr %0, ptr %2, align 8
  %3 = load ptr, ptr %2, align 8
  %4 = getelementptr inbounds %struct.nbnxn_atomdata_t, ptr %3, i32 0, i32 0
  ret ptr %4
}

; Function Attrs: mustprogress nounwind uwtable
define linkonce_odr noundef nonnull align 8 dereferenceable(144) ptr @_ZNK16nbnxn_atomdata_t12outputBufferEi(ptr noundef nonnull align 8 dereferenceable(464) %0, i32 noundef %1) #0 comdat align 2 {
  %3 = alloca ptr, align 8
  %4 = alloca i32, align 4
  store ptr %0, ptr %3, align 8
  store i32 %1, ptr %4, align 4
  %5 = load ptr, ptr %3, align 8
  %6 = getelementptr inbounds %struct.nbnxn_atomdata_t, ptr %5, i32 0, i32 11
  %7 = load i32, ptr %4, align 4
  %8 = sext i32 %7 to i64
  %9 = call noundef nonnull align 8 dereferenceable(144) ptr @_ZNKSt6vectorI23nbnxn_atomdata_output_tSaIS0_EEixEm(ptr noundef nonnull align 8 dereferenceable(24) %6, i64 noundef %8) #2
  ret ptr %9
}

; Function Attrs: mustprogress nounwind uwtable
define linkonce_odr noundef nonnull align 4 dereferenceable(4) ptr @_ZNKSt6vectorIfN3gmx9AllocatorIfNS0_20HostAllocationPolicyEEEEixEm(ptr noundef nonnull align 8 dereferenceable(32) %0, i64 noundef %1) #0 comdat align 2 {
  %3 = alloca ptr, align 8
  %4 = alloca i64, align 8
  store ptr %0, ptr %3, align 8
  store i64 %1, ptr %4, align 8
  %5 = load ptr, ptr %3, align 8
  %6 = getelementptr inbounds %"struct.std::_Vector_base", ptr %5, i32 0, i32 0
  %7 = getelementptr inbounds i8, ptr %6, i64 8
  %8 = getelementptr inbounds %"struct.std::_Vector_base<float, gmx::Allocator<float, gmx::HostAllocationPolicy>>::_Vector_impl_data", ptr %7, i32 0, i32 0
  %9 = load ptr, ptr %8, align 8
  %10 = load i64, ptr %4, align 8
  %11 = getelementptr inbounds float, ptr %9, i64 %10
  ret ptr %11
}

; Function Attrs: mustprogress nounwind uwtable
define linkonce_odr noundef nonnull align 8 dereferenceable(144) ptr @_ZNKSt6vectorI23nbnxn_atomdata_output_tSaIS0_EEixEm(ptr noundef nonnull align 8 dereferenceable(24) %0, i64 noundef %1) #0 comdat align 2 {
  %3 = alloca ptr, align 8
  %4 = alloca i64, align 8
  store ptr %0, ptr %3, align 8
  store i64 %1, ptr %4, align 8
  %5 = load ptr, ptr %3, align 8
  %6 = getelementptr inbounds %"struct.std::_Vector_base.18", ptr %5, i32 0, i32 0
  %7 = getelementptr inbounds %"struct.std::_Vector_base<nbnxn_atomdata_output_t, std::allocator<nbnxn_atomdata_output_t>>::_Vector_impl_data", ptr %6, i32 0, i32 0
  %8 = load ptr, ptr %7, align 8
  %9 = load i64, ptr %4, align 8
  %10 = getelementptr inbounds %struct.nbnxn_atomdata_output_t, ptr %8, i64 %9
  ret ptr %10
}


!llvm.module.flags = !{!0, !1, !2, !3, !4}

!0 = !{i32 1, !"wchar_size", i32 4}
!1 = !{i32 7, !"openmp", i32 51}
!2 = !{i32 8, !"PIC Level", i32 2}
!3 = !{i32 7, !"uwtable", i32 2}
!4 = !{i32 7, !"frame-pointer", i32 2}
!5 = distinct !{!5, !6}
!6 = !{!"llvm.loop.mustprogress"}
!7 = distinct !{!7, !6}
!8 = distinct !{!8, !6}
!9 = distinct !{!9, !6}
